; Function Attrs: mustprogress uwtable
define noundef i32 @_ZNK6icu_757UVector7indexOfE8UElementia(ptr nocapture noundef nonnull readonly align 8 dereferenceable(40) %this, ptr %key.coerce, i32 noundef %startIndex, i8 noundef signext %hint) local_unnamed_addr #1 align 2 {
entry:
  %comparer = getelementptr inbounds i8, ptr %this, i64 32
  %0 = load ptr, ptr %comparer, align 8
  %cmp.not = icmp eq ptr %0, null
  br i1 %cmp.not, label %for.cond9.preheader, label %for.cond.preheader

for.cond.preheader:                               ; preds = %entry
  %count = getelementptr inbounds i8, ptr %this, i64 8
  %1 = load i32, ptr %count, align 8
  %cmp212 = icmp sgt i32 %1, %startIndex
  br i1 %cmp212, label %for.body.lr.ph, label %return

for.body.lr.ph:                                   ; preds = %for.cond.preheader
  %elements = getelementptr inbounds i8, ptr %this, i64 16
  %2 = sext i32 %startIndex to i64
  br label %for.body

for.cond9.preheader:                              ; preds = %entry
  %3 = ptrtoint ptr %key.coerce to i64
  %key.sroa.0.0.extract.trunc = trunc i64 %3 to i32
  %count10 = getelementptr inbounds i8, ptr %this, i64 8
  %4 = load i32, ptr %count10, align 8
  %cmp1115 = icmp sgt i32 %4, %startIndex
  br i1 %cmp1115, label %for.body12.lr.ph, label %return

for.body12.lr.ph:                                 ; preds = %for.cond9.preheader
  %elements15 = getelementptr inbounds i8, ptr %this, i64 16
  %5 = and i8 %hint, 1
  %tobool13.not = icmp eq i8 %5, 0
  %6 = load ptr, ptr %elements15, align 8
  %7 = sext i32 %startIndex to i64
  %wide.trip.count32 = sext i32 %4 to i64
  br i1 %tobool13.not, label %for.body12.us, label %for.body12

for.body12.us:                                    ; preds = %for.body12.lr.ph, %for.inc29.us
  %indvars.iv29 = phi i64 [ %indvars.iv.next30, %for.inc29.us ], [ %7, %for.body12.lr.ph ]
  %arrayidx24.us = getelementptr inbounds %union.UElement, ptr %6, i64 %indvars.iv29
  %8 = load i32, ptr %arrayidx24.us, align 8
  %cmp25.us = icmp eq i32 %8, %key.sroa.0.0.extract.trunc
  br i1 %cmp25.us, label %return.loopexit.split.loop.exit42, label %for.inc29.us

for.inc29.us:                                     ; preds = %for.body12.us
  %indvars.iv.next30 = add nsw i64 %indvars.iv29, 1
  %exitcond33.not = icmp eq i64 %indvars.iv.next30, %wide.trip.count32
  br i1 %exitcond33.not, label %return, label %for.body12.us, !llvm.loop !14

for.body:                                         ; preds = %for.body.lr.ph, %for.inc
  %indvars.iv = phi i64 [ %2, %for.body.lr.ph ], [ %indvars.iv.next, %for.inc ]
  %9 = load ptr, ptr %comparer, align 8
  %10 = load ptr, ptr %elements, align 8
  %arrayidx = getelementptr inbounds %union.UElement, ptr %10, i64 %indvars.iv
  %agg.tmp4.sroa.0.0.copyload = load ptr, ptr %arrayidx, align 8
  %call = tail call noundef signext i8 %9(ptr %key.coerce, ptr %agg.tmp4.sroa.0.0.copyload)
  %tobool.not = icmp eq i8 %call, 0
  br i1 %tobool.not, label %for.inc, label %return.loopexit36.split.loop.exit38

for.inc:                                          ; preds = %for.body
  %indvars.iv.next = add nsw i64 %indvars.iv, 1
  %11 = load i32, ptr %count, align 8
  %12 = sext i32 %11 to i64
  %cmp2 = icmp slt i64 %indvars.iv.next, %12
  br i1 %cmp2, label %for.body, label %return, !llvm.loop !17

for.body12:                                       ; preds = %for.body12.lr.ph, %for.inc29
  %indvars.iv26 = phi i64 [ %indvars.iv.next27, %for.inc29 ], [ %7, %for.body12.lr.ph ]
  %arrayidx17 = getelementptr inbounds %union.UElement, ptr %6, i64 %indvars.iv26
  %13 = load ptr, ptr %arrayidx17, align 8
  %cmp18 = icmp eq ptr %13, %key.coerce
  br i1 %cmp18, label %return.loopexit34.split.loop.exit40, label %for.inc29

for.inc29:                                        ; preds = %for.body12
  %indvars.iv.next27 = add nsw i64 %indvars.iv26, 1
  %exitcond.not = icmp eq i64 %indvars.iv.next27, %wide.trip.count32
  br i1 %exitcond.not, label %return, label %for.body12, !llvm.loop !14

return.loopexit.split.loop.exit42:                ; preds = %for.body12.us
  %14 = trunc i64 %indvars.iv29 to i32
  br label %return

return.loopexit34.split.loop.exit40:              ; preds = %for.body12
  %15 = trunc i64 %indvars.iv26 to i32
  br label %return

return.loopexit36.split.loop.exit38:              ; preds = %for.body
  %16 = trunc i64 %indvars.iv to i32
  br label %return

return:                                           ; preds = %for.inc, %for.inc29, %for.inc29.us, %return.loopexit36.split.loop.exit38, %return.loopexit34.split.loop.exit40, %return.loopexit.split.loop.exit42, %for.cond.preheader, %for.cond9.preheader
  %retval.0 = phi i32 [ -1, %for.cond9.preheader ], [ -1, %for.cond.preheader ], [ %14, %return.loopexit.split.loop.exit42 ], [ %15, %return.loopexit34.split.loop.exit40 ], [ %16, %return.loopexit36.split.loop.exit38 ], [ -1, %for.inc29.us ], [ -1, %for.inc29 ], [ -1, %for.inc ]
  ret i32 %retval.0
}